; Function Attrs: mustprogress nounwind uwtable
define hidden void @_ZN4cvc58internal3smt12Preprocessor20clearLearnedLiteralsEv(ptr nocapture noundef nonnull align 8 dereferenceable(712) %this) local_unnamed_addr #4 align 2 personality ptr @__gxx_personality_v0 {
entry:
  %d_learnedLiterals.i = getelementptr inbounds i8, ptr %this, i64 208
  %0 = load ptr, ptr %d_learnedLiterals.i, align 8
  %_M_finish.i.i = getelementptr inbounds i8, ptr %this, i64 216
  %1 = load ptr, ptr %_M_finish.i.i, align 8
  %tobool.not.i.i = icmp eq ptr %1, %0
  br i1 %tobool.not.i.i, label %_ZNSt6vectorIN4cvc58internal9TrustNodeESaIS2_EE5clearEv.exit, label %for.body.i.i.i.i.i

for.body.i.i.i.i.i:                               ; preds = %entry, %_ZSt8_DestroyIN4cvc58internal9TrustNodeEEvPT_.exit.i.i.i.i.i
  %__first.addr.04.i.i.i.i.i = phi ptr [ %incdec.ptr.i.i.i.i.i, %_ZSt8_DestroyIN4cvc58internal9TrustNodeEEvPT_.exit.i.i.i.i.i ], [ %0, %entry ]
  %d_proven.i.i.i.i.i.i.i = getelementptr inbounds i8, ptr %__first.addr.04.i.i.i.i.i, i64 8
  %2 = load ptr, ptr %d_proven.i.i.i.i.i.i.i, align 8
  %bf.load.i.i.i.i.i.i.i.i.i = load i64, ptr %2, align 8
  %3 = and i64 %bf.load.i.i.i.i.i.i.i.i.i, 1152920405095219200
  %cmp.not.i.i.i.i.i.i.i.i.i = icmp eq i64 %3, 1152920405095219200
  br i1 %cmp.not.i.i.i.i.i.i.i.i.i, label %_ZSt8_DestroyIN4cvc58internal9TrustNodeEEvPT_.exit.i.i.i.i.i, label %if.then.i.i.i.i.i.i.i.i.i

if.then.i.i.i.i.i.i.i.i.i:                        ; preds = %for.body.i.i.i.i.i
  %bf.value.i.i.i.i.i.i.i.i.i = add i64 %bf.load.i.i.i.i.i.i.i.i.i, 1152920405095219200
  %bf.shl.i.i.i.i.i.i.i.i.i = and i64 %bf.value.i.i.i.i.i.i.i.i.i, 1152920405095219200
  %bf.clear7.i.i.i.i.i.i.i.i.i = and i64 %bf.load.i.i.i.i.i.i.i.i.i, -1152920405095219201
  %bf.set.i.i.i.i.i.i.i.i.i = or disjoint i64 %bf.shl.i.i.i.i.i.i.i.i.i, %bf.clear7.i.i.i.i.i.i.i.i.i
  store i64 %bf.set.i.i.i.i.i.i.i.i.i, ptr %2, align 8
  %cmp12.i.i.i.i.i.i.i.i.i = icmp eq i64 %bf.shl.i.i.i.i.i.i.i.i.i, 0
  br i1 %cmp12.i.i.i.i.i.i.i.i.i, label %if.then13.i.i.i.i.i.i.i.i.i, label %_ZSt8_DestroyIN4cvc58internal9TrustNodeEEvPT_.exit.i.i.i.i.i

if.then13.i.i.i.i.i.i.i.i.i:                      ; preds = %if.then.i.i.i.i.i.i.i.i.i
  invoke void @_ZN4cvc58internal4expr9NodeValue15markForDeletionEv(ptr noundef nonnull align 8 dereferenceable(16) %2)
          to label %_ZSt8_DestroyIN4cvc58internal9TrustNodeEEvPT_.exit.i.i.i.i.i unwind label %terminate.lpad.i.i.i.i.i.i.i.i

terminate.lpad.i.i.i.i.i.i.i.i:                   ; preds = %if.then13.i.i.i.i.i.i.i.i.i
  %4 = landingpad { ptr, i32 }
          catch ptr null
  %5 = extractvalue { ptr, i32 } %4, 0
  tail call void @__clang_call_terminate(ptr %5) #18
  unreachable

_ZSt8_DestroyIN4cvc58internal9TrustNodeEEvPT_.exit.i.i.i.i.i: ; preds = %if.then13.i.i.i.i.i.i.i.i.i, %if.then.i.i.i.i.i.i.i.i.i, %for.body.i.i.i.i.i
  %incdec.ptr.i.i.i.i.i = getelementptr inbounds i8, ptr %__first.addr.04.i.i.i.i.i, i64 24
  %cmp.not.i.i.i.i.i = icmp eq ptr %incdec.ptr.i.i.i.i.i, %1
  br i1 %cmp.not.i.i.i.i.i, label %invoke.cont.i.i, label %for.body.i.i.i.i.i, !llvm.loop !6

invoke.cont.i.i:                                  ; preds = %_ZSt8_DestroyIN4cvc58internal9TrustNodeEEvPT_.exit.i.i.i.i.i
  store ptr %0, ptr %_M_finish.i.i, align 8
  br label %_ZNSt6vectorIN4cvc58internal9TrustNodeESaIS2_EE5clearEv.exit

_ZNSt6vectorIN4cvc58internal9TrustNodeESaIS2_EE5clearEv.exit: ; preds = %entry, %invoke.cont.i.i
  ret void
}